target datalayout = "e-m:e-p270:32:32-p271:32:32-p272:64:64-i64:64-i128:128-f80:128-n8:16:32:64-S128"
target triple = "x86_64-unknown-linux-gnu"

%struct.PCIDevice = type { %struct.DeviceState, i8, i8, ptr, ptr, ptr, ptr, ptr, i32, %struct.PCIReqIDCache, [64 x i8], [7 x %struct.PCIIORegion], %struct.AddressSpace, %struct.MemoryRegion, %struct.MemoryRegion, ptr, ptr, [3 x ptr], i8, i8, i32, i8, i32, ptr, ptr, ptr, ptr, ptr, ptr, %struct.MemoryRegion, %struct.MemoryRegion, %struct.MemoryRegion, ptr, i8, i32, i8, %struct.PCIExpressDevice, ptr, ptr, i32, i8, %struct.MemoryRegion, i32, ptr, ptr, ptr, ptr, ptr, i32 }
%struct.DeviceState = type { %struct.Object, ptr, ptr, i8, i8, i64, ptr, i32, i8, ptr, %struct.NamedGPIOListHead, %struct.NamedClockListHead, %struct.BusStateHead, i32, i32, i32, %struct.ResettableState, ptr, %struct.MemReentrancyGuard }
%struct.Object = type { ptr, ptr, ptr, i32, ptr }
%struct.NamedGPIOListHead = type { ptr }
%struct.NamedClockListHead = type { ptr }
%struct.BusStateHead = type { ptr }
%struct.ResettableState = type { i32, i8, i8 }
%struct.MemReentrancyGuard = type { i8 }
%struct.PCIReqIDCache = type { ptr, i32 }
%struct.PCIIORegion = type { i64, i64, i8, ptr, ptr }
%struct.AddressSpace = type { %struct.rcu_head, ptr, ptr, ptr, i32, i32, ptr, %union.anon, %union.anon.0 }
%struct.rcu_head = type { ptr, ptr }
%union.anon = type { %struct.QTailQLink }
%struct.QTailQLink = type { ptr, ptr }
%union.anon.0 = type { %struct.QTailQLink }
%struct.PCIExpressDevice = type { i8, i8, i8, i16, %struct.PCIEAERLog, i16, i16, i16, %struct.PCIESriovPF, %struct.PCIESriovVF }
%struct.PCIEAERLog = type { i16, i16, ptr }
%struct.PCIESriovPF = type { i16, [7 x i8], ptr, ptr }
%struct.PCIESriovVF = type { ptr, i16 }
%struct.MemoryRegion = type { %struct.Object, i8, i8, i8, i8, i8, i8, i8, i8, i8, i8, ptr, ptr, ptr, ptr, ptr, ptr, i32, i128, i64, ptr, i64, i8, i8, i8, i8, i8, ptr, i64, i32, %union.anon.1, %union.anon.2, %union.anon.3, ptr, i32, ptr, ptr, i8 }
%union.anon.1 = type { %struct.QTailQLink }
%union.anon.2 = type { %struct.QTailQLink }
%union.anon.3 = type { %struct.QTailQLink }
%struct.IVShmemState = type { %struct.PCIDevice, i32, ptr, %struct.CharBackend, i32, i32, i32, %struct.MemoryRegion, ptr, %struct.MemoryRegion, ptr, i32, i32, ptr, i64, i32, i32, ptr }
%struct.CharBackend = type { ptr, ptr, ptr, ptr, ptr, ptr, i32, i32 }
%struct.Peer = type { i32, ptr }
%struct.EventNotifier = type { i32, i32, i8 }

@.str = private unnamed_addr constant [15 x i8] c"ivshmem-common\00", align 1
@.str.7 = private unnamed_addr constant [26 x i8] c"../qemu/hw/misc/ivshmem.c\00", align 1
@__func__.IVSHMEM_COMMON = private unnamed_addr constant [15 x i8] c"IVSHMEM_COMMON\00", align 1

; Function Attrs: nounwind sspstrong uwtable
define internal ptr @IVSHMEM_COMMON(ptr noundef %obj) #0 {
entry:
  %obj.addr = alloca ptr, align 8
  store ptr %obj, ptr %obj.addr, align 8
  %0 = load ptr, ptr %obj.addr, align 8
  %call = call ptr @object_dynamic_cast_assert(ptr noundef %0, ptr noundef @.str, ptr noundef @.str.7, i32 noundef 63, ptr noundef @__func__.IVSHMEM_COMMON)
  ret ptr %call
}

; Function Attrs: nounwind sspstrong uwtable
define internal void @ivshmem_vector_poll(ptr noundef %dev, i32 noundef %vector_start, i32 noundef %vector_end) #0 {
entry:
  %dev.addr = alloca ptr, align 8
  %vector_start.addr = alloca i32, align 4
  %vector_end.addr = alloca i32, align 4
  %s = alloca ptr, align 8
  %vector = alloca i32, align 4
  %_a5 = alloca i32, align 4
  %_b6 = alloca i32, align 4
  %tmp = alloca i32, align 4
  %notifier = alloca ptr, align 8
  store ptr %dev, ptr %dev.addr, align 8
  store i32 %vector_start, ptr %vector_start.addr, align 4
  store i32 %vector_end, ptr %vector_end.addr, align 4
  %0 = load ptr, ptr %dev.addr, align 8
  %call = call ptr @IVSHMEM_COMMON(ptr noundef %0)
  store ptr %call, ptr %s, align 8
  br label %do.body

do.body:                                          ; preds = %entry
  br label %do.end

do.end:                                           ; preds = %do.body
  %1 = load i32, ptr %vector_end.addr, align 4
  store i32 %1, ptr %_a5, align 4
  %2 = load ptr, ptr %s, align 8
  %vectors = getelementptr inbounds %struct.IVShmemState, ptr %2, i32 0, i32 12
  %3 = load i32, ptr %vectors, align 4
  store i32 %3, ptr %_b6, align 4
  %4 = load i32, ptr %_a5, align 4
  %5 = load i32, ptr %_b6, align 4
  %cmp = icmp ult i32 %4, %5
  br i1 %cmp, label %cond.true, label %cond.false

cond.true:                                        ; preds = %do.end
  %6 = load i32, ptr %_a5, align 4
  br label %cond.end

cond.false:                                       ; preds = %do.end
  %7 = load i32, ptr %_b6, align 4
  br label %cond.end

cond.end:                                         ; preds = %cond.false, %cond.true
  %cond = phi i32 [ %6, %cond.true ], [ %7, %cond.false ]
  store i32 %cond, ptr %tmp, align 4
  %8 = load i32, ptr %tmp, align 4
  store i32 %8, ptr %vector_end.addr, align 4
  %9 = load i32, ptr %vector_start.addr, align 4
  store i32 %9, ptr %vector, align 4
  br label %for.cond

for.cond:                                         ; preds = %for.inc, %cond.end
  %10 = load i32, ptr %vector, align 4
  %11 = load i32, ptr %vector_end.addr, align 4
  %cmp1 = icmp ult i32 %10, %11
  br i1 %cmp1, label %for.body, label %for.end

for.body:                                         ; preds = %for.cond
  %12 = load ptr, ptr %s, align 8
  %peers = getelementptr inbounds %struct.IVShmemState, ptr %12, i32 0, i32 10
  %13 = load ptr, ptr %peers, align 16
  %14 = load ptr, ptr %s, align 8
  %vm_id = getelementptr inbounds %struct.IVShmemState, ptr %14, i32 0, i32 6
  %15 = load i32, ptr %vm_id, align 16
  %idxprom = sext i32 %15 to i64
  %arrayidx = getelementptr %struct.Peer, ptr %13, i64 %idxprom
  %eventfds = getelementptr inbounds %struct.Peer, ptr %arrayidx, i32 0, i32 1
  %16 = load ptr, ptr %eventfds, align 8
  %17 = load i32, ptr %vector, align 4
  %idxprom2 = zext i32 %17 to i64
  %arrayidx3 = getelementptr %struct.EventNotifier, ptr %16, i64 %idxprom2
  store ptr %arrayidx3, ptr %notifier, align 8
  %18 = load ptr, ptr %dev.addr, align 8
  %19 = load i32, ptr %vector, align 4
  %call4 = call zeroext i1 @msix_is_masked(ptr noundef %18, i32 noundef %19)
  br i1 %call4, label %if.end, label %if.then

if.then:                                          ; preds = %for.body
  br label %for.inc

if.end:                                           ; preds = %for.body
  %20 = load ptr, ptr %notifier, align 8
  %call5 = call i32 @event_notifier_test_and_clear(ptr noundef %20)
  %tobool = icmp ne i32 %call5, 0
  br i1 %tobool, label %if.then6, label %if.end7

if.then6:                                         ; preds = %if.end
  %21 = load ptr, ptr %dev.addr, align 8
  %22 = load i32, ptr %vector, align 4
  call void @msix_set_pending(ptr noundef %21, i32 noundef %22)
  br label %if.end7

if.end7:                                          ; preds = %if.then6, %if.end
  br label %for.inc

for.inc:                                          ; preds = %if.end7, %if.then
  %23 = load i32, ptr %vector, align 4
  %inc = add i32 %23, 1
  store i32 %inc, ptr %vector, align 4
  br label %for.cond, !llvm.loop !16

for.end:                                          ; preds = %for.cond
  ret void
}