; Function Attrs: nounwind sspstrong uwtable
define internal void @ivshmem_vector_poll(ptr noundef %dev, i32 noundef %vector_start, i32 noundef %vector_end) #0 {
entry:
  %call.i = tail call ptr @object_dynamic_cast_assert(ptr noundef %dev, ptr noundef nonnull @.str, ptr noundef nonnull @.str.7, i32 noundef 63, ptr noundef nonnull @__func__.IVSHMEM_COMMON) #11
  %vectors = getelementptr inbounds nuw i8, ptr %call.i, i64 3276
  %0 = load i32, ptr %vectors, align 4
  %cond = tail call i32 @llvm.umin.i32(i32 %vector_end, i32 %0)
  %cmp112 = icmp ult i32 %vector_start, %cond
  br i1 %cmp112, label %for.body.lr.ph, label %for.end

for.body.lr.ph:                                   ; preds = %entry
  %peers = getelementptr inbounds nuw i8, ptr %call.i, i64 3264
  %vm_id = getelementptr inbounds nuw i8, ptr %call.i, i64 2688
  %1 = zext i32 %vector_start to i64
  br label %for.body

for.body:                                         ; preds = %for.body.lr.ph, %for.inc
  %indvars.iv = phi i64 [ %1, %for.body.lr.ph ], [ %indvars.iv.next, %for.inc ]
  %2 = load ptr, ptr %peers, align 16
  %3 = load i32, ptr %vm_id, align 16
  %idxprom = sext i32 %3 to i64
  %eventfds = getelementptr %struct.Peer, ptr %2, i64 %idxprom, i32 1
  %4 = load ptr, ptr %eventfds, align 8
  %5 = trunc nuw i64 %indvars.iv to i32
  %call4 = tail call zeroext i1 @msix_is_masked(ptr noundef %dev, i32 noundef %5) #11
  br i1 %call4, label %if.end, label %for.inc

if.end:                                           ; preds = %for.body
  %arrayidx3 = getelementptr %struct.EventNotifier, ptr %4, i64 %indvars.iv
  %call5 = tail call i32 @event_notifier_test_and_clear(ptr noundef %arrayidx3) #11
  %tobool.not = icmp eq i32 %call5, 0
  br i1 %tobool.not, label %for.inc, label %if.then6

if.then6:                                         ; preds = %if.end
  tail call void @msix_set_pending(ptr noundef %dev, i32 noundef %5) #11
  br label %for.inc

for.inc:                                          ; preds = %if.end, %if.then6, %for.body
  %indvars.iv.next = add nuw nsw i64 %indvars.iv, 1
  %lftr.wideiv = trunc i64 %indvars.iv.next to i32
  %exitcond.not = icmp eq i32 %cond, %lftr.wideiv
  br i1 %exitcond.not, label %for.end, label %for.body, !llvm.loop !16

for.end:                                          ; preds = %for.inc, %entry
  ret void
}